target datalayout = "e-m:e-p270:32:32-p271:32:32-p272:64:64-i64:64-i128:128-f80:128-n8:16:32:64-S128"
target triple = "x86_64-pc-linux-gnu"

%struct.ossl_param_st = type { ptr, i32, ptr, i64, i64 }
%struct.ossl_record_layer_st = type { ptr, ptr, i32, i32, i32, i32, i32, ptr, i16, ptr, ptr, ptr, i64, i32, [33 x %struct.tls_buffer_st], i64, i64, %struct.tls_buffer_st, [32 x %struct.tls_rl_record_st], i64, i64, i64, i32, ptr, i64, [8 x i8], i32, i32, i64, i32, ptr, ptr, i64, ptr, ptr, i32, i32, i32, i64, i64, i64, [64 x i8], i32, i32, i32, ptr, ptr, i32, i32, i64, ptr, ptr, %struct.dtls_bitmap_st, %struct.dtls_bitmap_st, i32, ptr, ptr, ptr, ptr, ptr, i64, ptr }
%struct.tls_buffer_st = type { ptr, i64, i64, i64, i64, i32, i32 }
%struct.tls_rl_record_st = type { i32, i32, i64, i64, i64, ptr, ptr, ptr, i16, [8 x i8] }
%struct.dtls_bitmap_st = type { i64, [8 x i8] }

@.str = private unnamed_addr constant [43 x i8] c"../openssl/ssl/record/methods/tls13_meth.c\00", align 1
@.str.1 = private unnamed_addr constant [5 x i8] c"NULL\00", align 1
@.str.2 = private unnamed_addr constant [5 x i8] c"HMAC\00", align 1
@__func__.tls13_set_crypto_state = private unnamed_addr constant [23 x i8] c"tls13_set_crypto_state\00", align 1
@.str.3 = private unnamed_addr constant [7 x i8] c"digest\00", align 1

; Function Attrs: nounwind uwtable
define internal i32 @tls13_set_crypto_state(ptr noundef %0, i32 noundef %1, ptr noundef %2, i64 noundef %3, ptr noundef %4, i64 noundef %5, ptr noundef %6, i64 noundef %7, ptr noundef %8, i64 noundef %9, i32 noundef %10, ptr noundef %11, ptr noundef %12) #0 {
  %14 = alloca i32, align 4
  %15 = alloca ptr, align 8
  %16 = alloca i32, align 4
  %17 = alloca ptr, align 8
  %18 = alloca i64, align 8
  %19 = alloca ptr, align 8
  %20 = alloca i64, align 8
  %21 = alloca ptr, align 8
  %22 = alloca i64, align 8
  %23 = alloca ptr, align 8
  %24 = alloca i64, align 8
  %25 = alloca i32, align 4
  %26 = alloca ptr, align 8
  %27 = alloca ptr, align 8
  %28 = alloca ptr, align 8
  %29 = alloca ptr, align 8
  %30 = alloca ptr, align 8
  %31 = alloca [2 x %struct.ossl_param_st], align 16
  %32 = alloca ptr, align 8
  %33 = alloca i32, align 4
  %34 = alloca i32, align 4
  %35 = alloca i32, align 4
  %36 = alloca %struct.ossl_param_st, align 8
  %37 = alloca %struct.ossl_param_st, align 8
  store ptr %0, ptr %15, align 8, !tbaa !3
  store i32 %1, ptr %16, align 4, !tbaa !8
  store ptr %2, ptr %17, align 8, !tbaa !10
  store i64 %3, ptr %18, align 8, !tbaa !12
  store ptr %4, ptr %19, align 8, !tbaa !10
  store i64 %5, ptr %20, align 8, !tbaa !12
  store ptr %6, ptr %21, align 8, !tbaa !10
  store i64 %7, ptr %22, align 8, !tbaa !12
  store ptr %8, ptr %23, align 8, !tbaa !14
  store i64 %9, ptr %24, align 8, !tbaa !12
  store i32 %10, ptr %25, align 4, !tbaa !8
  store ptr %11, ptr %26, align 8, !tbaa !16
  store ptr %12, ptr %27, align 8, !tbaa !18
  call void @llvm.lifetime.start.p0(i64 8, ptr %28) #4
  call void @llvm.lifetime.start.p0(i64 8, ptr %29) #4
  call void @llvm.lifetime.start.p0(i64 8, ptr %30) #4
  call void @llvm.lifetime.start.p0(i64 80, ptr %31) #4
  call void @llvm.lifetime.start.p0(i64 8, ptr %32) #4
  %38 = getelementptr inbounds [2 x %struct.ossl_param_st], ptr %31, i64 0, i64 0
  store ptr %38, ptr %32, align 8, !tbaa !20
  call void @llvm.lifetime.start.p0(i64 4, ptr %33) #4
  call void @llvm.lifetime.start.p0(i64 4, ptr %34) #4
  %39 = load ptr, ptr %15, align 8, !tbaa !3
  %40 = getelementptr inbounds nuw %struct.ossl_record_layer_st, ptr %39, i32 0, i32 5
  %41 = load i32, ptr %40, align 4, !tbaa !22
  %42 = icmp eq i32 %41, 1
  %43 = select i1 %42, i32 1, i32 0
  store i32 %43, ptr %34, align 4, !tbaa !8
  %44 = load i64, ptr %20, align 8, !tbaa !12
  %45 = call noalias ptr @CRYPTO_malloc(i64 noundef %44, ptr noundef @.str, i32 noundef 33)
  %46 = load ptr, ptr %15, align 8, !tbaa !3
  %47 = getelementptr inbounds nuw %struct.ossl_record_layer_st, ptr %46, i32 0, i32 45
  store ptr %45, ptr %47, align 8, !tbaa !35
  %48 = load ptr, ptr %15, align 8, !tbaa !3
  %49 = getelementptr inbounds nuw %struct.ossl_record_layer_st, ptr %48, i32 0, i32 45
  %50 = load ptr, ptr %49, align 8, !tbaa !35
  %51 = icmp eq ptr %50, null
  br i1 %51, label %52, label %53

52:                                               ; preds = %13
  store i32 -2, ptr %14, align 4
  store i32 1, ptr %35, align 4
  br label %150

53:                                               ; preds = %13
  %54 = load i64, ptr %20, align 8, !tbaa !12
  %55 = call noalias ptr @CRYPTO_malloc(i64 noundef %54, ptr noundef @.str, i32 noundef 37)
  %56 = load ptr, ptr %15, align 8, !tbaa !3
  %57 = getelementptr inbounds nuw %struct.ossl_record_layer_st, ptr %56, i32 0, i32 46
  store ptr %55, ptr %57, align 8, !tbaa !36
  %58 = load ptr, ptr %15, align 8, !tbaa !3
  %59 = getelementptr inbounds nuw %struct.ossl_record_layer_st, ptr %58, i32 0, i32 46
  %60 = load ptr, ptr %59, align 8, !tbaa !36
  %61 = icmp eq ptr %60, null
  br i1 %61, label %62, label %63

62:                                               ; preds = %53
  store i32 -2, ptr %14, align 4
  store i32 1, ptr %35, align 4
  br label %150

63:                                               ; preds = %53
  %64 = load ptr, ptr %15, align 8, !tbaa !3
  %65 = getelementptr inbounds nuw %struct.ossl_record_layer_st, ptr %64, i32 0, i32 45
  %66 = load ptr, ptr %65, align 8, !tbaa !35
  %67 = load ptr, ptr %19, align 8, !tbaa !10
  %68 = load i64, ptr %20, align 8, !tbaa !12
  call void @llvm.memcpy.p0.p0.i64(ptr align 1 %66, ptr align 1 %67, i64 %68, i1 false)
  %69 = load ptr, ptr %23, align 8, !tbaa !14
  %70 = call i32 @EVP_CIPHER_is_a(ptr noundef %69, ptr noundef @.str.1)
  %71 = icmp ne i32 %70, 0
  br i1 %71, label %72, label %111

72:                                               ; preds = %63
  %73 = load i32, ptr %25, align 4, !tbaa !8
  %74 = icmp eq i32 %73, 855
  br i1 %74, label %75, label %111

75:                                               ; preds = %72
  %76 = load ptr, ptr %26, align 8, !tbaa !16
  %77 = icmp ne ptr %76, null
  br i1 %77, label %78, label %111

78:                                               ; preds = %75
  %79 = load ptr, ptr %15, align 8, !tbaa !3
  %80 = getelementptr inbounds nuw %struct.ossl_record_layer_st, ptr %79, i32 0, i32 0
  %81 = load ptr, ptr %80, align 8, !tbaa !37
  %82 = load ptr, ptr %15, align 8, !tbaa !3
  %83 = getelementptr inbounds nuw %struct.ossl_record_layer_st, ptr %82, i32 0, i32 1
  %84 = load ptr, ptr %83, align 8, !tbaa !38
  %85 = call ptr @EVP_MAC_fetch(ptr noundef %81, ptr noundef @.str.2, ptr noundef %84)
  store ptr %85, ptr %30, align 8, !tbaa !39
  %86 = load ptr, ptr %30, align 8, !tbaa !39
  %87 = icmp eq ptr %86, null
  br i1 %87, label %94, label %88

88:                                               ; preds = %78
  %89 = load ptr, ptr %30, align 8, !tbaa !39
  %90 = call ptr @EVP_MAC_CTX_new(ptr noundef %89)
  %91 = load ptr, ptr %15, align 8, !tbaa !3
  %92 = getelementptr inbounds nuw %struct.ossl_record_layer_st, ptr %91, i32 0, i32 31
  store ptr %90, ptr %92, align 8, !tbaa !41
  store ptr %90, ptr %29, align 8, !tbaa !42
  %93 = icmp eq ptr %90, null
  br i1 %93, label %94, label %96

94:                                               ; preds = %88, %78
  %95 = load ptr, ptr %30, align 8, !tbaa !39
  call void @EVP_MAC_free(ptr noundef %95)
  call void @ERR_new()
  call void @ERR_set_debug(ptr noundef @.str, i32 noundef 49, ptr noundef @__func__.tls13_set_crypto_state)
  call void (i32, i32, ptr, ...) @ERR_set_error(i32 noundef 20, i32 noundef 786691, ptr noundef null)
  store i32 -2, ptr %14, align 4
  store i32 1, ptr %35, align 4
  br label %150

96:                                               ; preds = %88
  %97 = load ptr, ptr %30, align 8, !tbaa !39
  call void @EVP_MAC_free(ptr noundef %97)
  %98 = load ptr, ptr %32, align 8, !tbaa !20
  %99 = getelementptr inbounds nuw %struct.ossl_param_st, ptr %98, i32 1
  store ptr %99, ptr %32, align 8, !tbaa !20
  call void @llvm.lifetime.start.p0(i64 40, ptr %36) #4
  %100 = load ptr, ptr %26, align 8, !tbaa !16
  %101 = call ptr @EVP_MD_get0_name(ptr noundef %100)
  call void @OSSL_PARAM_construct_utf8_string(ptr dead_on_unwind writable sret(%struct.ossl_param_st) align 8 %36, ptr noundef @.str.3, ptr noundef %101, i64 noundef 0)
  call void @llvm.memcpy.p0.p0.i64(ptr align 8 %98, ptr align 8 %36, i64 40, i1 false), !tbaa.struct !43
  call void @llvm.lifetime.end.p0(i64 40, ptr %36) #4
  %102 = load ptr, ptr %32, align 8, !tbaa !20
  call void @llvm.lifetime.start.p0(i64 40, ptr %37) #4
  call void @OSSL_PARAM_construct_end(ptr dead_on_unwind writable sret(%struct.ossl_param_st) align 8 %37)
  call void @llvm.memcpy.p0.p0.i64(ptr align 8 %102, ptr align 8 %37, i64 40, i1 false), !tbaa.struct !43
  call void @llvm.lifetime.end.p0(i64 40, ptr %37) #4
  %103 = load ptr, ptr %29, align 8, !tbaa !42
  %104 = load ptr, ptr %17, align 8, !tbaa !10
  %105 = load i64, ptr %18, align 8, !tbaa !12
  %106 = getelementptr inbounds [2 x %struct.ossl_param_st], ptr %31, i64 0, i64 0
  %107 = call i32 @EVP_MAC_init(ptr noundef %103, ptr noundef %104, i64 noundef %105, ptr noundef %106)
  %108 = icmp ne i32 %107, 0
  br i1 %108, label %110, label %109

109:                                              ; preds = %96
  call void @ERR_new()
  call void @ERR_set_debug(ptr noundef @.str, i32 noundef 57, ptr noundef @__func__.tls13_set_crypto_state)
  call void (i32, i32, ptr, ...) @ERR_set_error(i32 noundef 20, i32 noundef 786691, ptr noundef null)
  store i32 -2, ptr %14, align 4
  store i32 1, ptr %35, align 4
  br label %150

110:                                              ; preds = %96
  br label %149

111:                                              ; preds = %75, %72, %63
  %112 = call ptr @EVP_CIPHER_CTX_new()
  %113 = load ptr, ptr %15, align 8, !tbaa !3
  %114 = getelementptr inbounds nuw %struct.ossl_record_layer_st, ptr %113, i32 0, i32 30
  store ptr %112, ptr %114, align 8, !tbaa !45
  store ptr %112, ptr %28, align 8, !tbaa !46
  %115 = load ptr, ptr %28, align 8, !tbaa !46
  %116 = icmp eq ptr %115, null
  br i1 %116, label %117, label %118

117:                                              ; preds = %111
  call void @ERR_new()
  call void @ERR_set_debug(ptr noundef @.str, i32 noundef 65, ptr noundef @__func__.tls13_set_crypto_state)
  call void (i32, i32, ptr, ...) @ERR_set_error(i32 noundef 20, i32 noundef 786691, ptr noundef null)
  store i32 -2, ptr %14, align 4
  store i32 1, ptr %35, align 4
  br label %150

118:                                              ; preds = %111
  %119 = load ptr, ptr %23, align 8, !tbaa !14
  %120 = call i32 @EVP_CIPHER_get_mode(ptr noundef %119)
  store i32 %120, ptr %33, align 4, !tbaa !8
  %121 = load ptr, ptr %28, align 8, !tbaa !46
  %122 = load ptr, ptr %23, align 8, !tbaa !14
  %123 = load i32, ptr %34, align 4, !tbaa !8
  %124 = call i32 @EVP_CipherInit_ex(ptr noundef %121, ptr noundef %122, ptr noundef null, ptr noundef null, ptr noundef null, i32 noundef %123)
  %125 = icmp sle i32 %124, 0
  br i1 %125, label %147, label %126

126:                                              ; preds = %118
  %127 = load ptr, ptr %28, align 8, !tbaa !46
  %128 = load i64, ptr %20, align 8, !tbaa !12
  %129 = trunc i64 %128 to i32
  %130 = call i32 @EVP_CIPHER_CTX_ctrl(ptr noundef %127, i32 noundef 9, i32 noundef %129, ptr noundef null)
  %131 = icmp sle i32 %130, 0
  br i1 %131, label %147, label %132

132:                                              ; preds = %126
  %133 = load i32, ptr %33, align 4, !tbaa !8
  %134 = icmp eq i32 %133, 7
  br i1 %134, label %135, label %141

135:                                              ; preds = %132
  %136 = load ptr, ptr %28, align 8, !tbaa !46
  %137 = load i64, ptr %24, align 8, !tbaa !12
  %138 = trunc i64 %137 to i32
  %139 = call i32 @EVP_CIPHER_CTX_ctrl(ptr noundef %136, i32 noundef 17, i32 noundef %138, ptr noundef null)
  %140 = icmp sle i32 %139, 0
  br i1 %140, label %147, label %141

141:                                              ; preds = %135, %132
  %142 = load ptr, ptr %28, align 8, !tbaa !46
  %143 = load ptr, ptr %17, align 8, !tbaa !10
  %144 = load i32, ptr %34, align 4, !tbaa !8
  %145 = call i32 @EVP_CipherInit_ex(ptr noundef %142, ptr noundef null, ptr noundef null, ptr noundef %143, ptr noundef null, i32 noundef %144)
  %146 = icmp sle i32 %145, 0
  br i1 %146, label %147, label %148

147:                                              ; preds = %141, %135, %126, %118
  call void @ERR_new()
  call void @ERR_set_debug(ptr noundef @.str, i32 noundef 78, ptr noundef @__func__.tls13_set_crypto_state)
  call void (i32, i32, ptr, ...) @ERR_set_error(i32 noundef 20, i32 noundef 786691, ptr noundef null)
  store i32 -2, ptr %14, align 4
  store i32 1, ptr %35, align 4
  br label %150

148:                                              ; preds = %141
  br label %149

149:                                              ; preds = %148, %110
  store i32 1, ptr %14, align 4
  store i32 1, ptr %35, align 4
  br label %150

150:                                              ; preds = %149, %147, %117, %109, %94, %62, %52
  call void @llvm.lifetime.end.p0(i64 4, ptr %34) #4
  call void @llvm.lifetime.end.p0(i64 4, ptr %33) #4
  call void @llvm.lifetime.end.p0(i64 8, ptr %32) #4
  call void @llvm.lifetime.end.p0(i64 80, ptr %31) #4
  call void @llvm.lifetime.end.p0(i64 8, ptr %30) #4
  call void @llvm.lifetime.end.p0(i64 8, ptr %29) #4
  call void @llvm.lifetime.end.p0(i64 8, ptr %28) #4
  %151 = load i32, ptr %14, align 4
  ret i32 %151
}