; Function Attrs: nounwind uwtable
define internal range(i32 -2, 2) i32 @tls13_set_crypto_state(ptr noundef captures(none) initializes((4288, 4296)) %0, i32 %1, ptr noundef %2, i64 noundef %3, ptr noundef readonly captures(none) %4, i64 noundef %5, ptr readnone captures(none) %6, i64 %7, ptr noundef %8, i64 noundef %9, i32 noundef %10, ptr noundef %11, ptr readnone captures(none) %12) #0 {
  %14 = alloca [2 x %struct.ossl_param_st], align 16
  %15 = alloca %struct.ossl_param_st, align 8
  call void @llvm.lifetime.start.p0(i64 80, ptr nonnull %14) #6
  %16 = getelementptr inbounds nuw i8, ptr %0, i64 28
  %17 = load i32, ptr %16, align 4, !tbaa !3
  %18 = icmp eq i32 %17, 1
  %19 = zext i1 %18 to i32
  %20 = tail call noalias ptr @CRYPTO_malloc(i64 noundef %5, ptr noundef nonnull @.str, i32 noundef 33) #6
  %21 = getelementptr inbounds nuw i8, ptr %0, i64 4288
  store ptr %20, ptr %21, align 8, !tbaa !23
  %22 = icmp eq ptr %20, null
  br i1 %22, label %72, label %23

23:                                               ; preds = %13
  %24 = tail call noalias ptr @CRYPTO_malloc(i64 noundef %5, ptr noundef nonnull @.str, i32 noundef 37) #6
  %25 = getelementptr inbounds nuw i8, ptr %0, i64 4296
  store ptr %24, ptr %25, align 8, !tbaa !24
  %26 = icmp eq ptr %24, null
  br i1 %26, label %72, label %27

27:                                               ; preds = %23
  %28 = load ptr, ptr %21, align 8, !tbaa !23
  tail call void @llvm.memcpy.p0.p0.i64(ptr align 1 %28, ptr align 1 %4, i64 %5, i1 false)
  %29 = tail call i32 @EVP_CIPHER_is_a(ptr noundef %8, ptr noundef nonnull @.str.1) #6
  %30 = icmp ne i32 %29, 0
  %31 = icmp eq i32 %10, 855
  %or.cond = and i1 %31, %30
  %32 = icmp ne ptr %11, null
  %or.cond3 = and i1 %32, %or.cond
  br i1 %or.cond3, label %33, label %49

33:                                               ; preds = %27
  %34 = load ptr, ptr %0, align 8, !tbaa !25
  %35 = getelementptr inbounds nuw i8, ptr %0, i64 8
  %36 = load ptr, ptr %35, align 8, !tbaa !26
  %37 = tail call ptr @EVP_MAC_fetch(ptr noundef %34, ptr noundef nonnull @.str.2, ptr noundef %36) #6
  %38 = icmp eq ptr %37, null
  br i1 %38, label %43, label %39

39:                                               ; preds = %33
  %40 = tail call ptr @EVP_MAC_CTX_new(ptr noundef nonnull %37) #6
  %41 = getelementptr inbounds nuw i8, ptr %0, i64 4136
  store ptr %40, ptr %41, align 8, !tbaa !27
  %42 = icmp eq ptr %40, null
  br i1 %42, label %43, label %44

43:                                               ; preds = %39, %33
  tail call void @EVP_MAC_free(ptr noundef %37) #6
  tail call void @ERR_new() #6
  tail call void @ERR_set_debug(ptr noundef nonnull @.str, i32 noundef 49, ptr noundef nonnull @__func__.tls13_set_crypto_state) #6
  tail call void (i32, i32, ptr, ...) @ERR_set_error(i32 noundef 20, i32 noundef 786691, ptr noundef null) #6
  br label %72

44:                                               ; preds = %39
  tail call void @EVP_MAC_free(ptr noundef nonnull %37) #6
  %45 = getelementptr inbounds nuw i8, ptr %14, i64 40
  %46 = tail call ptr @EVP_MD_get0_name(ptr noundef nonnull %11) #6
  call void @OSSL_PARAM_construct_utf8_string(ptr dead_on_unwind nonnull writable sret(%struct.ossl_param_st) align 8 %14, ptr noundef nonnull @.str.3, ptr noundef %46, i64 noundef 0) #6
  call void @llvm.lifetime.start.p0(i64 40, ptr nonnull %15) #6
  call void @OSSL_PARAM_construct_end(ptr dead_on_unwind nonnull writable sret(%struct.ossl_param_st) align 8 %15) #6
  call void @llvm.memcpy.p0.p0.i64(ptr noundef nonnull align 8 dereferenceable(40) %45, ptr noundef nonnull align 8 dereferenceable(40) %15, i64 40, i1 false), !tbaa.struct !28
  call void @llvm.lifetime.end.p0(i64 40, ptr nonnull %15) #6
  %47 = call i32 @EVP_MAC_init(ptr noundef nonnull %40, ptr noundef %2, i64 noundef %3, ptr noundef nonnull %14) #6
  %.not = icmp eq i32 %47, 0
  br i1 %.not, label %48, label %72

48:                                               ; preds = %44
  call void @ERR_new() #6
  call void @ERR_set_debug(ptr noundef nonnull @.str, i32 noundef 57, ptr noundef nonnull @__func__.tls13_set_crypto_state) #6
  call void (i32, i32, ptr, ...) @ERR_set_error(i32 noundef 20, i32 noundef 786691, ptr noundef null) #6
  br label %72

49:                                               ; preds = %27
  %50 = tail call ptr @EVP_CIPHER_CTX_new() #6
  %51 = getelementptr inbounds nuw i8, ptr %0, i64 4128
  store ptr %50, ptr %51, align 8, !tbaa !33
  %52 = icmp eq ptr %50, null
  br i1 %52, label %53, label %54

53:                                               ; preds = %49
  tail call void @ERR_new() #6
  tail call void @ERR_set_debug(ptr noundef nonnull @.str, i32 noundef 65, ptr noundef nonnull @__func__.tls13_set_crypto_state) #6
  tail call void (i32, i32, ptr, ...) @ERR_set_error(i32 noundef 20, i32 noundef 786691, ptr noundef null) #6
  br label %72

54:                                               ; preds = %49
  %55 = tail call i32 @EVP_CIPHER_get_mode(ptr noundef %8) #6
  %56 = tail call i32 @EVP_CipherInit_ex(ptr noundef nonnull %50, ptr noundef %8, ptr noundef null, ptr noundef null, ptr noundef null, i32 noundef %19) #6
  %57 = icmp slt i32 %56, 1
  br i1 %57, label %71, label %58

58:                                               ; preds = %54
  %59 = trunc i64 %5 to i32
  %60 = tail call i32 @EVP_CIPHER_CTX_ctrl(ptr noundef nonnull %50, i32 noundef 9, i32 noundef %59, ptr noundef null) #6
  %61 = icmp slt i32 %60, 1
  br i1 %61, label %71, label %62

62:                                               ; preds = %58
  %63 = icmp eq i32 %55, 7
  br i1 %63, label %64, label %68

64:                                               ; preds = %62
  %65 = trunc i64 %9 to i32
  %66 = tail call i32 @EVP_CIPHER_CTX_ctrl(ptr noundef nonnull %50, i32 noundef 17, i32 noundef %65, ptr noundef null) #6
  %67 = icmp slt i32 %66, 1
  br i1 %67, label %71, label %68

68:                                               ; preds = %64, %62
  %69 = tail call i32 @EVP_CipherInit_ex(ptr noundef nonnull %50, ptr noundef null, ptr noundef null, ptr noundef %2, ptr noundef null, i32 noundef %19) #6
  %70 = icmp slt i32 %69, 1
  br i1 %70, label %71, label %72

71:                                               ; preds = %68, %64, %58, %54
  tail call void @ERR_new() #6
  tail call void @ERR_set_debug(ptr noundef nonnull @.str, i32 noundef 78, ptr noundef nonnull @__func__.tls13_set_crypto_state) #6
  tail call void (i32, i32, ptr, ...) @ERR_set_error(i32 noundef 20, i32 noundef 786691, ptr noundef null) #6
  br label %72

72:                                               ; preds = %44, %68, %23, %13, %71, %53, %48, %43
  %.0 = phi i32 [ -2, %43 ], [ -2, %48 ], [ -2, %53 ], [ -2, %71 ], [ -2, %13 ], [ -2, %23 ], [ 1, %68 ], [ 1, %44 ]
  call void @llvm.lifetime.end.p0(i64 80, ptr nonnull %14) #6
  ret i32 %.0
}